; ModuleID = '10/608.c'
source_filename = "10/608.c"
target datalayout = "e-m:e-p270:32:32-p271:32:32-p272:64:64-i64:64-f80:128-n8:16:32:64-S128"
target triple = "x86_64-pc-linux-gnu"

@.str = private unnamed_addr constant [3 x i8] c"%d\00", align 1

; Function Attrs: noinline nounwind uwtable
define dso_local i32 @main() #0 {
  %1 = alloca i32, align 4
  %2 = alloca i32, align 4
  %3 = alloca i32, align 4
  %4 = alloca i32, align 4
  %5 = alloca [30 x i32], align 16
  %6 = alloca [30 x i32], align 16
  store i32 0, i32* %1, align 4
  %7 = call i32 (i8*, ...) @__isoc99_scanf(i8* getelementptr inbounds ([3 x i8], [3 x i8]* @.str, i64 0, i64 0), i32* %2)
  store i32 0, i32* %3, align 4
  br label %8

8:                                                ; preds = %20, %0
  %9 = load i32, i32* %3, align 4
  %10 = load i32, i32* %2, align 4
  %11 = icmp slt i32 %9, %10
  br i1 %11, label %12, label %23

12:                                               ; preds = %8
  %13 = load i32, i32* %3, align 4
  %14 = sext i32 %13 to i64
  %15 = getelementptr inbounds [30 x i32], [30 x i32]* %5, i64 0, i64 %14
  %16 = call i32 (i8*, ...) @__isoc99_scanf(i8* getelementptr inbounds ([3 x i8], [3 x i8]* @.str, i64 0, i64 0), i32* %15)
  %17 = load i32, i32* %3, align 4
  %18 = sext i32 %17 to i64
  %19 = getelementptr inbounds [30 x i32], [30 x i32]* %6, i64 0, i64 %18
  store i32 0, i32* %19, align 4
  br label %20

20:                                               ; preds = %12
  %21 = load i32, i32* %3, align 4
  %22 = add nsw i32 %21, 1
  store i32 %22, i32* %3, align 4
  br label %8

23:                                               ; preds = %8
  %24 = load i32, i32* %2, align 4
  %25 = sub nsw i32 %24, 1
  store i32 %25, i32* %3, align 4
  br label %26

26:                                               ; preds = %74, %23
  %27 = load i32, i32* %3, align 4
  %28 = icmp sge i32 %27, 0
  br i1 %28, label %29, label %77

29:                                               ; preds = %26
  %30 = load i32, i32* %3, align 4
  %31 = add nsw i32 %30, 1
  store i32 %31, i32* %4, align 4
  br label %32

32:                                               ; preds = %65, %29
  %33 = load i32, i32* %4, align 4
  %34 = load i32, i32* %2, align 4
  %35 = icmp slt i32 %33, %34
  br i1 %35, label %36, label %68

36:                                               ; preds = %32
  %37 = load i32, i32* %3, align 4
  %38 = sext i32 %37 to i64
  %39 = getelementptr inbounds [30 x i32], [30 x i32]* %5, i64 0, i64 %38
  %40 = load i32, i32* %39, align 4
  %41 = load i32, i32* %4, align 4
  %42 = sext i32 %41 to i64
  %43 = getelementptr inbounds [30 x i32], [30 x i32]* %5, i64 0, i64 %42
  %44 = load i32, i32* %43, align 4
  %45 = icmp sge i32 %40, %44
  br i1 %45, label %46, label %64

46:                                               ; preds = %36
  %47 = load i32, i32* %3, align 4
  %48 = sext i32 %47 to i64
  %49 = getelementptr inbounds [30 x i32], [30 x i32]* %6, i64 0, i64 %48
  %50 = load i32, i32* %49, align 4
  %51 = load i32, i32* %4, align 4
  %52 = sext i32 %51 to i64
  %53 = getelementptr inbounds [30 x i32], [30 x i32]* %6, i64 0, i64 %52
  %54 = load i32, i32* %53, align 4
  %55 = icmp slt i32 %50, %54
  br i1 %55, label %56, label %64

56:                                               ; preds = %46
  %57 = load i32, i32* %4, align 4
  %58 = sext i32 %57 to i64
  %59 = getelementptr inbounds [30 x i32], [30 x i32]* %6, i64 0, i64 %58
  %60 = load i32, i32* %59, align 4
  %61 = load i32, i32* %3, align 4
  %62 = sext i32 %61 to i64
  %63 = getelementptr inbounds [30 x i32], [30 x i32]* %6, i64 0, i64 %62
  store i32 %60, i32* %63, align 4
  br label %64

64:                                               ; preds = %56, %46, %36
  br label %65

65:                                               ; preds = %64
  %66 = load i32, i32* %4, align 4
  %67 = add nsw i32 %66, 1
  store i32 %67, i32* %4, align 4
  br label %32

68:                                               ; preds = %32
  %69 = load i32, i32* %3, align 4
  %70 = sext i32 %69 to i64
  %71 = getelementptr inbounds [30 x i32], [30 x i32]* %6, i64 0, i64 %70
  %72 = load i32, i32* %71, align 4
  %73 = add nsw i32 %72, 1
  store i32 %73, i32* %71, align 4
  br label %74

74:                                               ; preds = %68
  %75 = load i32, i32* %3, align 4
  %76 = add nsw i32 %75, -1
  store i32 %76, i32* %3, align 4
  br label %26

77:                                               ; preds = %26
  store i32 0, i32* %3, align 4
  br label %78

78:                                               ; preds = %97, %77
  %79 = load i32, i32* %3, align 4
  %80 = load i32, i32* %2, align 4
  %81 = icmp slt i32 %79, %80
  br i1 %81, label %82, label %100

82:                                               ; preds = %78
  %83 = getelementptr inbounds [30 x i32], [30 x i32]* %6, i64 0, i64 0
  %84 = load i32, i32* %83, align 16
  %85 = load i32, i32* %3, align 4
  %86 = sext i32 %85 to i64
  %87 = getelementptr inbounds [30 x i32], [30 x i32]* %6, i64 0, i64 %86
  %88 = load i32, i32* %87, align 4
  %89 = icmp slt i32 %84, %88
  br i1 %89, label %90, label %96

90:                                               ; preds = %82
  %91 = load i32, i32* %3, align 4
  %92 = sext i32 %91 to i64
  %93 = getelementptr inbounds [30 x i32], [30 x i32]* %6, i64 0, i64 %92
  %94 = load i32, i32* %93, align 4
  %95 = getelementptr inbounds [30 x i32], [30 x i32]* %6, i64 0, i64 0
  store i32 %94, i32* %95, align 16
  br label %96

96:                                               ; preds = %90, %82
  br label %97

97:                                               ; preds = %96
  %98 = load i32, i32* %3, align 4
  %99 = add nsw i32 %98, 1
  store i32 %99, i32* %3, align 4
  br label %78

100:                                              ; preds = %78
  %101 = getelementptr inbounds [30 x i32], [30 x i32]* %6, i64 0, i64 0
  %102 = load i32, i32* %101, align 16
  %103 = call i32 (i8*, ...) @printf(i8* getelementptr inbounds ([3 x i8], [3 x i8]* @.str, i64 0, i64 0), i32 %102)
  %104 = load i32, i32* %1, align 4
  ret i32 %104
}

declare dso_local i32 @__isoc99_scanf(i8*, ...) #1

declare dso_local i32 @printf(i8*, ...) #1


!llvm.module.flags = !{!0}
!llvm.ident = !{!1}

!0 = !{i32 1, !"wchar_size", i32 4}
!1 = !{!"clang version 10.0.0-4ubuntu1 "}
